target datalayout = "e-m:e-p270:32:32-p271:32:32-p272:64:64-i64:64-i128:128-f80:128-n8:16:32:64-S128"
target triple = "x86_64-pc-linux-gnu"

%struct.dictType = type { ptr, ptr, ptr, ptr, ptr, ptr, ptr, ptr, ptr, ptr, ptr, i8, ptr, ptr, ptr }
%struct.dict = type { ptr, [2 x ptr], [2 x i64], i64, i16, [2 x i8], i16, [0 x ptr] }

; Function Attrs: nounwind uwtable
define internal void @_dictReset(ptr noundef %0, i32 noundef %1) #0 {
  %3 = alloca ptr, align 8
  %4 = alloca i32, align 4
  store ptr %0, ptr %3, align 8, !tbaa !18
  store i32 %1, ptr %4, align 4, !tbaa !29
  %5 = load ptr, ptr %3, align 8, !tbaa !18
  %6 = getelementptr inbounds nuw %struct.dict, ptr %5, i32 0, i32 1
  %7 = load i32, ptr %4, align 4, !tbaa !29
  %8 = sext i32 %7 to i64
  %9 = getelementptr inbounds [2 x ptr], ptr %6, i64 0, i64 %8
  store ptr null, ptr %9, align 8, !tbaa !30
  %10 = load ptr, ptr %3, align 8, !tbaa !18
  %11 = getelementptr inbounds nuw %struct.dict, ptr %10, i32 0, i32 5
  %12 = load i32, ptr %4, align 4, !tbaa !29
  %13 = sext i32 %12 to i64
  %14 = getelementptr inbounds [2 x i8], ptr %11, i64 0, i64 %13
  store i8 -1, ptr %14, align 1, !tbaa !25
  %15 = load ptr, ptr %3, align 8, !tbaa !18
  %16 = getelementptr inbounds nuw %struct.dict, ptr %15, i32 0, i32 2
  %17 = load i32, ptr %4, align 4, !tbaa !29
  %18 = sext i32 %17 to i64
  %19 = getelementptr inbounds [2 x i64], ptr %16, i64 0, i64 %18
  store i64 0, ptr %19, align 8, !tbaa !11
  ret void
}

; Function Attrs: nounwind uwtable
define internal i32 @_dictInit(ptr noundef %0, ptr noundef %1) #0 {
  %3 = alloca ptr, align 8
  %4 = alloca ptr, align 8
  store ptr %0, ptr %3, align 8, !tbaa !18
  store ptr %1, ptr %4, align 8, !tbaa !13
  %5 = load ptr, ptr %3, align 8, !tbaa !18
  call void @_dictReset(ptr noundef %5, i32 noundef 0)
  %6 = load ptr, ptr %3, align 8, !tbaa !18
  call void @_dictReset(ptr noundef %6, i32 noundef 1)
  %7 = load ptr, ptr %4, align 8, !tbaa !13
  %8 = load ptr, ptr %3, align 8, !tbaa !18
  %9 = getelementptr inbounds nuw %struct.dict, ptr %8, i32 0, i32 0
  store ptr %7, ptr %9, align 8, !tbaa !13
  %10 = load ptr, ptr %3, align 8, !tbaa !18
  %11 = getelementptr inbounds nuw %struct.dict, ptr %10, i32 0, i32 3
  store i64 -1, ptr %11, align 8, !tbaa !11
  %12 = load ptr, ptr %3, align 8, !tbaa !18
  %13 = getelementptr inbounds nuw %struct.dict, ptr %12, i32 0, i32 4
  %14 = load i16, ptr %13, align 8
  %15 = and i16 %14, -32768
  %16 = or i16 %15, 0
  store i16 %16, ptr %13, align 8
  %17 = load ptr, ptr %3, align 8, !tbaa !18
  %18 = getelementptr inbounds nuw %struct.dict, ptr %17, i32 0, i32 6
  store i16 0, ptr %18, align 4, !tbaa !20
  %19 = load ptr, ptr %3, align 8, !tbaa !18
  %20 = getelementptr inbounds nuw %struct.dict, ptr %19, i32 0, i32 4
  %21 = load i16, ptr %20, align 8
  %22 = and i16 %21, 32767
  %23 = or i16 %22, 0
  store i16 %23, ptr %20, align 8
  ret i32 0
}

; Function Attrs: nounwind uwtable
define dso_local ptr @dictCreate(ptr noundef %0) #0 {
  %2 = alloca ptr, align 8
  %3 = alloca i64, align 8
  %4 = alloca ptr, align 8
  store ptr %0, ptr %2, align 8, !tbaa !13
  call void @llvm.lifetime.start.p0(i64 8, ptr %3) #14
  %5 = load ptr, ptr %2, align 8, !tbaa !13
  %6 = getelementptr inbounds nuw %struct.dictType, ptr %5, i32 0, i32 9
  %7 = load ptr, ptr %6, align 8, !tbaa !15
  %8 = icmp ne ptr %7, null
  br i1 %8, label %9, label %14

9:                                                ; preds = %1
  %10 = load ptr, ptr %2, align 8, !tbaa !13
  %11 = getelementptr inbounds nuw %struct.dictType, ptr %10, i32 0, i32 9
  %12 = load ptr, ptr %11, align 8, !tbaa !15
  %13 = call i64 %12(ptr noundef null)
  br label %15

14:                                               ; preds = %1
  br label %15

15:                                               ; preds = %14, %9
  %16 = phi i64 [ %13, %9 ], [ 0, %14 ]
  store i64 %16, ptr %3, align 8, !tbaa !11
  call void @llvm.lifetime.start.p0(i64 8, ptr %4) #14
  %17 = load i64, ptr %3, align 8, !tbaa !11
  %18 = add i64 56, %17
  %19 = call noalias ptr @zmalloc(i64 noundef %18) #15
  store ptr %19, ptr %4, align 8, !tbaa !18
  %20 = load i64, ptr %3, align 8, !tbaa !11
  %21 = icmp ugt i64 %20, 0
  br i1 %21, label %22, label %26

22:                                               ; preds = %15
  %23 = load ptr, ptr %4, align 8, !tbaa !18
  %24 = getelementptr inbounds nuw %struct.dict, ptr %23, i32 0, i32 7
  %25 = load i64, ptr %3, align 8, !tbaa !11
  call void @llvm.memset.p0.i64(ptr align 8 %24, i8 0, i64 %25, i1 false)
  br label %26

26:                                               ; preds = %22, %15
  %27 = load ptr, ptr %4, align 8, !tbaa !18
  %28 = load ptr, ptr %2, align 8, !tbaa !13
  %29 = call i32 @_dictInit(ptr noundef %27, ptr noundef %28)
  %30 = load ptr, ptr %4, align 8, !tbaa !18
  call void @llvm.lifetime.end.p0(i64 8, ptr %4) #14
  call void @llvm.lifetime.end.p0(i64 8, ptr %3) #14
  ret ptr %30
}