; Function Attrs: nounwind uwtable
define dso_local noundef ptr @dictCreate(ptr noundef %0) local_unnamed_addr #3 {
  %2 = getelementptr inbounds nuw i8, ptr %0, i64 72
  %3 = load ptr, ptr %2, align 8, !tbaa !5
  %.not = icmp eq ptr %3, null
  br i1 %.not, label %.thread, label %5

.thread:                                          ; preds = %1
  %4 = tail call noalias dereferenceable_or_null(56) ptr @zmalloc(i64 noundef 56) #26
  br label %11

5:                                                ; preds = %1
  %6 = tail call i64 %3(ptr noundef null) #25
  %7 = add i64 %6, 56
  %8 = tail call noalias ptr @zmalloc(i64 noundef %7) #26
  %.not9 = icmp eq i64 %6, 0
  br i1 %.not9, label %11, label %9

9:                                                ; preds = %5
  %10 = getelementptr inbounds nuw i8, ptr %8, i64 56
  tail call void @llvm.memset.p0.i64(ptr nonnull align 8 %10, i8 0, i64 %6, i1 false)
  br label %11

11:                                               ; preds = %.thread, %9, %5
  %12 = phi ptr [ %4, %.thread ], [ %8, %9 ], [ %8, %5 ]
  %13 = getelementptr inbounds nuw i8, ptr %12, i64 8
  store ptr null, ptr %13, align 8, !tbaa !11
  %14 = getelementptr inbounds nuw i8, ptr %12, i64 50
  store i8 -1, ptr %14, align 1, !tbaa !13
  %15 = getelementptr inbounds nuw i8, ptr %12, i64 16
  %16 = getelementptr inbounds nuw i8, ptr %12, i64 51
  tail call void @llvm.memset.p0.i64(ptr noundef nonnull align 8 dereferenceable(16) %15, i8 0, i64 16, i1 false)
  store i8 -1, ptr %16, align 1, !tbaa !13
  %17 = getelementptr inbounds nuw i8, ptr %12, i64 32
  store i64 0, ptr %17, align 8, !tbaa !14
  store ptr %0, ptr %12, align 8, !tbaa !16
  %18 = getelementptr inbounds nuw i8, ptr %12, i64 40
  store i64 -1, ptr %18, align 8, !tbaa !14
  %19 = getelementptr inbounds nuw i8, ptr %12, i64 48
  %20 = getelementptr inbounds nuw i8, ptr %12, i64 52
  store i16 0, ptr %20, align 4, !tbaa !18
  store i16 0, ptr %19, align 8
  ret ptr %12
}